
3_Gerland.elf:     file format elf32-avr

Sections:
Idx Name          Size      VMA       LMA       File off  Algn
  0 .text         0000014c  00000000  00000000  00000054  2**1
                  CONTENTS, ALLOC, LOAD, READONLY, CODE
  1 .data         00000000  00800060  00800060  000001a0  2**0
                  CONTENTS, ALLOC, LOAD, DATA
  2 .comment      00000030  00000000  00000000  000001a0  2**0
                  CONTENTS, READONLY
  3 .note.gnu.avr.deviceinfo 0000003c  00000000  00000000  000001d0  2**2
                  CONTENTS, READONLY
  4 .debug_aranges 00000020  00000000  00000000  0000020c  2**0
                  CONTENTS, READONLY, DEBUGGING
  5 .debug_info   000007cf  00000000  00000000  0000022c  2**0
                  CONTENTS, READONLY, DEBUGGING
  6 .debug_abbrev 0000051b  00000000  00000000  000009fb  2**0
                  CONTENTS, READONLY, DEBUGGING
  7 .debug_line   00000301  00000000  00000000  00000f16  2**0
                  CONTENTS, READONLY, DEBUGGING
  8 .debug_frame  00000024  00000000  00000000  00001218  2**2
                  CONTENTS, READONLY, DEBUGGING
  9 .debug_str    000002e7  00000000  00000000  0000123c  2**0
                  CONTENTS, READONLY, DEBUGGING
 10 .debug_loc    00000318  00000000  00000000  00001523  2**0
                  CONTENTS, READONLY, DEBUGGING
 11 .debug_ranges 00000010  00000000  00000000  0000183b  2**0
                  CONTENTS, READONLY, DEBUGGING

Disassembly of section .text:

00000000 <__vectors>:
   0:	12 c0       	rjmp	.+36     	; 0x26 <__ctors_end>
   2:	19 c0       	rjmp	.+50     	; 0x36 <__bad_interrupt>
   4:	18 c0       	rjmp	.+48     	; 0x36 <__bad_interrupt>
   6:	17 c0       	rjmp	.+46     	; 0x36 <__bad_interrupt>
   8:	16 c0       	rjmp	.+44     	; 0x36 <__bad_interrupt>
   a:	15 c0       	rjmp	.+42     	; 0x36 <__bad_interrupt>
   c:	14 c0       	rjmp	.+40     	; 0x36 <__bad_interrupt>
   e:	13 c0       	rjmp	.+38     	; 0x36 <__bad_interrupt>
  10:	12 c0       	rjmp	.+36     	; 0x36 <__bad_interrupt>
  12:	11 c0       	rjmp	.+34     	; 0x36 <__bad_interrupt>
  14:	10 c0       	rjmp	.+32     	; 0x36 <__bad_interrupt>
  16:	0f c0       	rjmp	.+30     	; 0x36 <__bad_interrupt>
  18:	0e c0       	rjmp	.+28     	; 0x36 <__bad_interrupt>
  1a:	0d c0       	rjmp	.+26     	; 0x36 <__bad_interrupt>
  1c:	0c c0       	rjmp	.+24     	; 0x36 <__bad_interrupt>
  1e:	0b c0       	rjmp	.+22     	; 0x36 <__bad_interrupt>
  20:	0a c0       	rjmp	.+20     	; 0x36 <__bad_interrupt>
  22:	09 c0       	rjmp	.+18     	; 0x36 <__bad_interrupt>
  24:	08 c0       	rjmp	.+16     	; 0x36 <__bad_interrupt>

00000026 <__ctors_end>:
  26:	11 24       	eor	r1, r1
  28:	1f be       	out	0x3f, r1	; 63
  2a:	cf e5       	ldi	r28, 0x5F	; 95
  2c:	d4 e0       	ldi	r29, 0x04	; 4
  2e:	de bf       	out	0x3e, r29	; 62
  30:	cd bf       	out	0x3d, r28	; 61
  32:	02 d0       	rcall	.+4      	; 0x38 <main>
  34:	89 c0       	rjmp	.+274    	; 0x148 <_exit>

00000036 <__bad_interrupt>:
  36:	e4 cf       	rjmp	.-56     	; 0x0 <__vectors>

00000038 <main>:
#define BUTTON PORTB


int main(void)
{
	DDRB = 0b00000000; // in button
  38:	17 ba       	out	0x17, r1	; 23
	DDRD = 0b11111111; // out led
  3a:	8f ef       	ldi	r24, 0xFF	; 255
  3c:	81 bb       	out	0x11, r24	; 17
	
	LED = 0b00000000; // Low potential
  3e:	12 ba       	out	0x12, r1	; 18
	BUTTON = 0b11111111; //high potential
  40:	88 bb       	out	0x18, r24	; 24
	

    while (1) 
    {
		if (PINB == 0b11111110) {
  42:	86 b3       	in	r24, 0x16	; 22
  44:	8e 3f       	cpi	r24, 0xFE	; 254
  46:	b1 f4       	brne	.+44     	; 0x74 <__SREG__+0x35>
			LED = 0b11111111;
  48:	8f ef       	ldi	r24, 0xFF	; 255
  4a:	82 bb       	out	0x12, r24	; 18
	#else
		//round up by default
		__ticks_dc = (uint32_t)(ceil(fabs(__tmp)));
	#endif

	__builtin_avr_delay_cycles(__ticks_dc);
  4c:	2f e5       	ldi	r18, 0x5F	; 95
  4e:	8a ee       	ldi	r24, 0xEA	; 234
  50:	90 e0       	ldi	r25, 0x00	; 0
  52:	21 50       	subi	r18, 0x01	; 1
  54:	80 40       	sbci	r24, 0x00	; 0
  56:	90 40       	sbci	r25, 0x00	; 0
  58:	e1 f7       	brne	.-8      	; 0x52 <__SREG__+0x13>
  5a:	00 c0       	rjmp	.+0      	; 0x5c <__SREG__+0x1d>
  5c:	00 00       	nop
			_delay_ms(DELAY);
			LED = 0b00000000;
  5e:	12 ba       	out	0x12, r1	; 18
  60:	2f e5       	ldi	r18, 0x5F	; 95
  62:	8a ee       	ldi	r24, 0xEA	; 234
  64:	90 e0       	ldi	r25, 0x00	; 0
  66:	21 50       	subi	r18, 0x01	; 1
  68:	80 40       	sbci	r24, 0x00	; 0
  6a:	90 40       	sbci	r25, 0x00	; 0
  6c:	e1 f7       	brne	.-8      	; 0x66 <__SREG__+0x27>
  6e:	00 c0       	rjmp	.+0      	; 0x70 <__SREG__+0x31>
  70:	00 00       	nop
  72:	01 c0       	rjmp	.+2      	; 0x76 <__SREG__+0x37>
			_delay_ms(DELAY);
		} else {
			LED = 0b00000000;
  74:	12 ba       	out	0x12, r1	; 18
		}
		if (PINB == 0b11111101) {
  76:	86 b3       	in	r24, 0x16	; 22
  78:	8d 3f       	cpi	r24, 0xFD	; 253
  7a:	09 f0       	breq	.+2      	; 0x7e <__SREG__+0x3f>
  7c:	63 c0       	rjmp	.+198    	; 0x144 <__SREG__+0x105>
			LED = 0b00000001;
  7e:	81 e0       	ldi	r24, 0x01	; 1
  80:	82 bb       	out	0x12, r24	; 18
  82:	2f e5       	ldi	r18, 0x5F	; 95
  84:	8a ee       	ldi	r24, 0xEA	; 234
  86:	90 e0       	ldi	r25, 0x00	; 0
  88:	21 50       	subi	r18, 0x01	; 1
  8a:	80 40       	sbci	r24, 0x00	; 0
  8c:	90 40       	sbci	r25, 0x00	; 0
  8e:	e1 f7       	brne	.-8      	; 0x88 <__SREG__+0x49>
  90:	00 c0       	rjmp	.+0      	; 0x92 <__SREG__+0x53>
  92:	00 00       	nop
			_delay_ms(DELAY);
			LED = 0b00000011;
  94:	83 e0       	ldi	r24, 0x03	; 3
  96:	82 bb       	out	0x12, r24	; 18
  98:	2f e5       	ldi	r18, 0x5F	; 95
  9a:	8a ee       	ldi	r24, 0xEA	; 234
  9c:	90 e0       	ldi	r25, 0x00	; 0
  9e:	21 50       	subi	r18, 0x01	; 1
  a0:	80 40       	sbci	r24, 0x00	; 0
  a2:	90 40       	sbci	r25, 0x00	; 0
  a4:	e1 f7       	brne	.-8      	; 0x9e <__SREG__+0x5f>
  a6:	00 c0       	rjmp	.+0      	; 0xa8 <__SREG__+0x69>
  a8:	00 00       	nop
			_delay_ms(DELAY);
			LED = 0b00000111;
  aa:	87 e0       	ldi	r24, 0x07	; 7
  ac:	82 bb       	out	0x12, r24	; 18
  ae:	2f e5       	ldi	r18, 0x5F	; 95
  b0:	8a ee       	ldi	r24, 0xEA	; 234
  b2:	90 e0       	ldi	r25, 0x00	; 0
  b4:	21 50       	subi	r18, 0x01	; 1
  b6:	80 40       	sbci	r24, 0x00	; 0
  b8:	90 40       	sbci	r25, 0x00	; 0
  ba:	e1 f7       	brne	.-8      	; 0xb4 <__SREG__+0x75>
  bc:	00 c0       	rjmp	.+0      	; 0xbe <__SREG__+0x7f>
  be:	00 00       	nop
			_delay_ms(DELAY);
			LED = 0b00001111;
  c0:	8f e0       	ldi	r24, 0x0F	; 15
  c2:	82 bb       	out	0x12, r24	; 18
  c4:	2f e5       	ldi	r18, 0x5F	; 95
  c6:	8a ee       	ldi	r24, 0xEA	; 234
  c8:	90 e0       	ldi	r25, 0x00	; 0
  ca:	21 50       	subi	r18, 0x01	; 1
  cc:	80 40       	sbci	r24, 0x00	; 0
  ce:	90 40       	sbci	r25, 0x00	; 0
  d0:	e1 f7       	brne	.-8      	; 0xca <__SREG__+0x8b>
  d2:	00 c0       	rjmp	.+0      	; 0xd4 <__SREG__+0x95>
  d4:	00 00       	nop
			_delay_ms(DELAY);
			LED = 0b00011111;
  d6:	8f e1       	ldi	r24, 0x1F	; 31
  d8:	82 bb       	out	0x12, r24	; 18
  da:	2f e5       	ldi	r18, 0x5F	; 95
  dc:	8a ee       	ldi	r24, 0xEA	; 234
  de:	90 e0       	ldi	r25, 0x00	; 0
  e0:	21 50       	subi	r18, 0x01	; 1
  e2:	80 40       	sbci	r24, 0x00	; 0
  e4:	90 40       	sbci	r25, 0x00	; 0
  e6:	e1 f7       	brne	.-8      	; 0xe0 <__SREG__+0xa1>
  e8:	00 c0       	rjmp	.+0      	; 0xea <__SREG__+0xab>
  ea:	00 00       	nop
			_delay_ms(DELAY);
			LED = 0b00111111;
  ec:	8f e3       	ldi	r24, 0x3F	; 63
  ee:	82 bb       	out	0x12, r24	; 18
  f0:	2f e5       	ldi	r18, 0x5F	; 95
  f2:	8a ee       	ldi	r24, 0xEA	; 234
  f4:	90 e0       	ldi	r25, 0x00	; 0
  f6:	21 50       	subi	r18, 0x01	; 1
  f8:	80 40       	sbci	r24, 0x00	; 0
  fa:	90 40       	sbci	r25, 0x00	; 0
  fc:	e1 f7       	brne	.-8      	; 0xf6 <__SREG__+0xb7>
  fe:	00 c0       	rjmp	.+0      	; 0x100 <__SREG__+0xc1>
 100:	00 00       	nop
			_delay_ms(DELAY);
			LED = 0b01111111;
 102:	8f e7       	ldi	r24, 0x7F	; 127
 104:	82 bb       	out	0x12, r24	; 18
 106:	2f e5       	ldi	r18, 0x5F	; 95
 108:	8a ee       	ldi	r24, 0xEA	; 234
 10a:	90 e0       	ldi	r25, 0x00	; 0
 10c:	21 50       	subi	r18, 0x01	; 1
 10e:	80 40       	sbci	r24, 0x00	; 0
 110:	90 40       	sbci	r25, 0x00	; 0
 112:	e1 f7       	brne	.-8      	; 0x10c <__SREG__+0xcd>
 114:	00 c0       	rjmp	.+0      	; 0x116 <__SREG__+0xd7>
 116:	00 00       	nop
			_delay_ms(DELAY);
			LED = 0b11111111;
 118:	8f ef       	ldi	r24, 0xFF	; 255
 11a:	82 bb       	out	0x12, r24	; 18
 11c:	2f e5       	ldi	r18, 0x5F	; 95
 11e:	8a ee       	ldi	r24, 0xEA	; 234
 120:	90 e0       	ldi	r25, 0x00	; 0
 122:	21 50       	subi	r18, 0x01	; 1
 124:	80 40       	sbci	r24, 0x00	; 0
 126:	90 40       	sbci	r25, 0x00	; 0
 128:	e1 f7       	brne	.-8      	; 0x122 <__SREG__+0xe3>
 12a:	00 c0       	rjmp	.+0      	; 0x12c <__SREG__+0xed>
 12c:	00 00       	nop
			_delay_ms(DELAY);
			LED = 0b00000000;
 12e:	12 ba       	out	0x12, r1	; 18
 130:	2f e5       	ldi	r18, 0x5F	; 95
 132:	8a ee       	ldi	r24, 0xEA	; 234
 134:	90 e0       	ldi	r25, 0x00	; 0
 136:	21 50       	subi	r18, 0x01	; 1
 138:	80 40       	sbci	r24, 0x00	; 0
 13a:	90 40       	sbci	r25, 0x00	; 0
 13c:	e1 f7       	brne	.-8      	; 0x136 <__SREG__+0xf7>
 13e:	00 c0       	rjmp	.+0      	; 0x140 <__SREG__+0x101>
 140:	00 00       	nop
 142:	7f cf       	rjmp	.-258    	; 0x42 <__SREG__+0x3>
			_delay_ms(DELAY);
		} else {
			LED = 0b00000000;
 144:	12 ba       	out	0x12, r1	; 18
 146:	7d cf       	rjmp	.-262    	; 0x42 <__SREG__+0x3>

00000148 <_exit>:
 148:	f8 94       	cli

0000014a <__stop_program>:
 14a:	ff cf       	rjmp	.-2      	; 0x14a <__stop_program>
